; Function Attrs: nounwind uwtable
define internal fastcc range(i32 -12, 1) i32 @cvRcheck1(ptr noundef nonnull captures(none) %0) unnamed_addr #0 {
  %2 = getelementptr inbounds nuw i8, ptr %0, i64 2072
  %3 = load i32, ptr %2, align 8, !tbaa !199
  %4 = icmp sgt i32 %3, 0
  br i1 %4, label %.lr.ph, label %._crit_edge

.lr.ph:                                           ; preds = %1
  %5 = getelementptr inbounds nuw i8, ptr %0, i64 2080
  %6 = load ptr, ptr %5, align 8, !tbaa !203
  br label %7

7:                                                ; preds = %.lr.ph, %7
  %indvars.iv = phi i64 [ 0, %.lr.ph ], [ %indvars.iv.next, %7 ]
  %8 = getelementptr inbounds nuw i32, ptr %6, i64 %indvars.iv
  store i32 0, ptr %8, align 4, !tbaa !51
  %indvars.iv.next = add nuw nsw i64 %indvars.iv, 1
  %9 = load i32, ptr %2, align 8, !tbaa !199
  %10 = sext i32 %9 to i64
  %11 = icmp slt i64 %indvars.iv.next, %10
  br i1 %11, label %7, label %._crit_edge, !llvm.loop !246

._crit_edge:                                      ; preds = %7, %1
  %12 = getelementptr inbounds nuw i8, ptr %0, i64 984
  %13 = load double, ptr %12, align 8, !tbaa !84
  %14 = getelementptr inbounds nuw i8, ptr %0, i64 2096
  store double %13, ptr %14, align 8, !tbaa !230
  %15 = tail call double @SUNRabs(double noundef %13) #13
  %16 = getelementptr inbounds nuw i8, ptr %0, i64 944
  %17 = load double, ptr %16, align 8, !tbaa !222
  %18 = tail call double @SUNRabs(double noundef %17) #13
  %19 = fadd double %15, %18
  %20 = load double, ptr %0, align 8, !tbaa !19
  %21 = fmul double %19, %20
  %22 = fmul double %21, 1.000000e+02
  %23 = getelementptr inbounds nuw i8, ptr %0, i64 2152
  store double %22, ptr %23, align 8, !tbaa !247
  %24 = getelementptr inbounds nuw i8, ptr %0, i64 2064
  %25 = load ptr, ptr %24, align 8, !tbaa !206
  %26 = load double, ptr %14, align 8, !tbaa !230
  %27 = getelementptr inbounds nuw i8, ptr %0, i64 320
  %28 = load ptr, ptr %27, align 8, !tbaa !46
  %29 = getelementptr inbounds nuw i8, ptr %0, i64 2120
  %30 = load ptr, ptr %29, align 8, !tbaa !200
  %31 = getelementptr inbounds nuw i8, ptr %0, i64 16
  %32 = load ptr, ptr %31, align 8, !tbaa !56
  %33 = tail call i32 %25(double noundef %26, ptr noundef %28, ptr noundef %30, ptr noundef %32) #13
  %34 = getelementptr inbounds nuw i8, ptr %0, i64 2168
  store i64 1, ptr %34, align 8, !tbaa !98
  %.not = icmp eq i32 %33, 0
  br i1 %.not, label %.preheader64, label %.loopexit

.preheader64:                                     ; preds = %._crit_edge
  %35 = load i32, ptr %2, align 8, !tbaa !199
  %36 = icmp sgt i32 %35, 0
  br i1 %36, label %.lr.ph68, label %.loopexit

.lr.ph68:                                         ; preds = %.preheader64
  %37 = getelementptr inbounds nuw i8, ptr %0, i64 2176
  br label %.outer

.outer:                                           ; preds = %.thread, %.lr.ph68
  %indvars.iv73.ph = phi i64 [ %indvars.iv.next7481, %.thread ], [ 0, %.lr.ph68 ]
  %38 = phi i1 [ false, %.thread ], [ true, %.lr.ph68 ]
  br label %39

39:                                               ; preds = %.outer, %45
  %indvars.iv73 = phi i64 [ %indvars.iv.next74, %45 ], [ %indvars.iv73.ph, %.outer ]
  %40 = load ptr, ptr %29, align 8, !tbaa !200
  %41 = getelementptr inbounds nuw double, ptr %40, i64 %indvars.iv73
  %42 = load double, ptr %41, align 8, !tbaa !49
  %43 = tail call double @SUNRabs(double noundef %42) #13
  %44 = fcmp oeq double %43, 0.000000e+00
  br i1 %44, label %.thread, label %45

45:                                               ; preds = %39
  %indvars.iv.next74 = add nuw nsw i64 %indvars.iv73, 1
  %46 = load i32, ptr %2, align 8, !tbaa !199
  %47 = sext i32 %46 to i64
  %48 = icmp slt i64 %indvars.iv.next74, %47
  br i1 %48, label %39, label %._crit_edge69, !llvm.loop !248

.thread:                                          ; preds = %39
  %49 = load ptr, ptr %37, align 8, !tbaa !205
  %50 = getelementptr inbounds nuw i32, ptr %49, i64 %indvars.iv73
  store i32 0, ptr %50, align 4, !tbaa !51
  %indvars.iv.next7481 = add nuw nsw i64 %indvars.iv73, 1
  %51 = load i32, ptr %2, align 8, !tbaa !199
  %52 = sext i32 %51 to i64
  %53 = icmp slt i64 %indvars.iv.next7481, %52
  br i1 %53, label %.outer, label %._crit_edge69.thread83, !llvm.loop !248

._crit_edge69:                                    ; preds = %45
  br i1 %38, label %.loopexit, label %._crit_edge69.thread83

._crit_edge69.thread83:                           ; preds = %.thread, %._crit_edge69
  %54 = load double, ptr %23, align 8, !tbaa !247
  %55 = load double, ptr %16, align 8, !tbaa !222
  %56 = tail call double @SUNRabs(double noundef %55) #13
  %57 = fdiv double %54, %56
  %58 = fcmp ogt double %57, 1.000000e-01
  br i1 %58, label %59, label %64

59:                                               ; preds = %._crit_edge69.thread83
  %60 = load double, ptr %23, align 8, !tbaa !247
  %61 = load double, ptr %16, align 8, !tbaa !222
  %62 = tail call double @SUNRabs(double noundef %61) #13
  %63 = fdiv double %60, %62
  br label %64

64:                                               ; preds = %._crit_edge69.thread83, %59
  %65 = phi double [ %63, %59 ], [ 1.000000e-01, %._crit_edge69.thread83 ]
  %66 = load double, ptr %16, align 8, !tbaa !222
  %67 = fmul double %65, %66
  %68 = load double, ptr %14, align 8, !tbaa !230
  %69 = fadd double %68, %67
  %70 = load ptr, ptr %27, align 8, !tbaa !46
  %71 = getelementptr inbounds nuw i8, ptr %0, i64 328
  %72 = load ptr, ptr %71, align 8, !tbaa !46
  %73 = getelementptr inbounds nuw i8, ptr %0, i64 432
  %74 = load ptr, ptr %73, align 8, !tbaa !208
  tail call void @N_VLinearSum(double noundef 1.000000e+00, ptr noundef %70, double noundef %65, ptr noundef %72, ptr noundef %74) #13
  %75 = load ptr, ptr %24, align 8, !tbaa !206
  %76 = load ptr, ptr %73, align 8, !tbaa !208
  %77 = getelementptr inbounds nuw i8, ptr %0, i64 2128
  %78 = load ptr, ptr %77, align 8, !tbaa !201
  %79 = load ptr, ptr %31, align 8, !tbaa !56
  %80 = tail call i32 %75(double noundef %69, ptr noundef %76, ptr noundef %78, ptr noundef %79) #13
  %81 = load i64, ptr %34, align 8, !tbaa !98
  %82 = add nsw i64 %81, 1
  store i64 %82, ptr %34, align 8, !tbaa !98
  %.not62 = icmp eq i32 %80, 0
  br i1 %.not62, label %.preheader, label %.loopexit

.preheader:                                       ; preds = %64
  %83 = load i32, ptr %2, align 8, !tbaa !199
  %84 = icmp sgt i32 %83, 0
  br i1 %84, label %.lr.ph71, label %.loopexit

.lr.ph71:                                         ; preds = %.preheader
  %85 = getelementptr inbounds nuw i8, ptr %0, i64 2176
  br label %86

86:                                               ; preds = %.lr.ph71, %104
  %indvars.iv76 = phi i64 [ 0, %.lr.ph71 ], [ %indvars.iv.next77, %104 ]
  %87 = load ptr, ptr %85, align 8, !tbaa !205
  %88 = getelementptr inbounds nuw i32, ptr %87, i64 %indvars.iv76
  %89 = load i32, ptr %88, align 4, !tbaa !51
  %.not63 = icmp eq i32 %89, 0
  br i1 %.not63, label %90, label %104

90:                                               ; preds = %86
  %91 = load ptr, ptr %77, align 8, !tbaa !201
  %92 = getelementptr inbounds nuw double, ptr %91, i64 %indvars.iv76
  %93 = load double, ptr %92, align 8, !tbaa !49
  %94 = tail call double @SUNRabs(double noundef %93) #13
  %95 = fcmp une double %94, 0.000000e+00
  br i1 %95, label %96, label %104

96:                                               ; preds = %90
  %97 = load ptr, ptr %85, align 8, !tbaa !205
  %98 = getelementptr inbounds nuw i32, ptr %97, i64 %indvars.iv76
  store i32 1, ptr %98, align 4, !tbaa !51
  %99 = load ptr, ptr %77, align 8, !tbaa !201
  %100 = getelementptr inbounds nuw double, ptr %99, i64 %indvars.iv76
  %101 = load double, ptr %100, align 8, !tbaa !49
  %102 = load ptr, ptr %29, align 8, !tbaa !200
  %103 = getelementptr inbounds nuw double, ptr %102, i64 %indvars.iv76
  store double %101, ptr %103, align 8, !tbaa !49
  br label %104

104:                                              ; preds = %86, %90, %96
  %indvars.iv.next77 = add nuw nsw i64 %indvars.iv76, 1
  %105 = load i32, ptr %2, align 8, !tbaa !199
  %106 = sext i32 %105 to i64
  %107 = icmp slt i64 %indvars.iv.next77, %106
  br i1 %107, label %86, label %.loopexit, !llvm.loop !249

.loopexit:                                        ; preds = %104, %.preheader64, %.preheader, %64, %._crit_edge69, %._crit_edge
  %.058 = phi i32 [ -12, %._crit_edge ], [ 0, %._crit_edge69 ], [ -12, %64 ], [ 0, %.preheader ], [ 0, %.preheader64 ], [ 0, %104 ]
  ret i32 %.058
}